target datalayout = "e-m:e-p270:32:32-p271:32:32-p272:64:64-i64:64-i128:128-f80:128-n8:16:32:64-S128"
target triple = "x86_64-pc-linux-gnu"

%"class.llvm::LLVMContext" = type { ptr }
%"class.llvm::LLVMContextImpl" = type { %"class.llvm::SmallPtrSet", %"class.llvm::DenseMap", %"class.std::unique_ptr", %"class.std::unique_ptr.2", i8, i8, [6 x i8], %"class.std::optional", %"class.std::optional.10", i8, %"class.std::unique_ptr.18", ptr, ptr, %"class.llvm::DenseMap.26", %"class.llvm::DenseMap.29", %"class.llvm::DenseMap.29", %"class.llvm::DenseMap.32", %"class.llvm::DenseMap.35", %"class.llvm::DenseMap.38", %"class.llvm::DenseMap.41", %"class.llvm::FoldingSet", %"class.llvm::FoldingSet.44", %"class.llvm::FoldingSet.46", %"class.llvm::StringMap", %"class.llvm::DenseMap.55", %"class.llvm::DenseMap.58", %"class.llvm::DenseSet", %"class.llvm::DenseSet.64", %"class.llvm::DenseSet.69", %"class.llvm::DenseSet.74", %"class.llvm::DenseSet.79", %"class.llvm::DenseSet.84", %"class.llvm::DenseSet.89", %"class.llvm::DenseSet.94", %"class.llvm::DenseSet.99", %"class.llvm::DenseSet.104", %"class.llvm::DenseSet.109", %"class.llvm::DenseSet.114", %"class.llvm::DenseSet.119", %"class.llvm::DenseSet.124", %"class.llvm::DenseSet.129", %"class.llvm::DenseSet.134", %"class.llvm::DenseSet.139", %"class.llvm::DenseSet.144", %"class.llvm::DenseSet.149", %"class.llvm::DenseSet.154", %"class.llvm::DenseSet.159", %"class.llvm::DenseSet.164", %"class.llvm::DenseSet.169", %"class.llvm::DenseSet.174", %"class.llvm::DenseSet.179", %"class.llvm::DenseSet.184", %"class.llvm::DenseSet.189", %"class.llvm::DenseSet.194", %"class.llvm::DenseSet.199", %"class.llvm::DenseSet.204", %"class.std::optional.209", %"class.std::vector", %"class.std::vector.222", %"class.llvm::DenseMap.227", %"class.llvm::ConstantUniqueMap", %"class.llvm::ConstantUniqueMap.235", %"class.llvm::ConstantUniqueMap.241", %"class.llvm::DenseMap.247", %"class.llvm::DenseMap.250", %"class.llvm::DenseMap.253", %"class.llvm::DenseMap.256", %"class.llvm::StringMap.259", %"class.llvm::DenseMap.260", %"class.llvm::DenseMap.263", %"class.llvm::DenseMap.266", %"class.llvm::ConstantUniqueMap.269", %"class.llvm::ConstantUniqueMap.275", %"class.llvm::ConstantUniqueMap.281", ptr, ptr, %"class.llvm::Type", %"class.llvm::Type", %"class.llvm::Type", %"class.llvm::Type", %"class.llvm::Type", %"class.llvm::Type", %"class.llvm::Type", %"class.llvm::Type", %"class.llvm::Type", %"class.llvm::Type", %"class.llvm::Type", %"class.llvm::Type", %"class.llvm::IntegerType", %"class.llvm::IntegerType", %"class.llvm::IntegerType", %"class.llvm::IntegerType", %"class.llvm::IntegerType", %"class.llvm::IntegerType", %"class.std::unique_ptr.287", %"class.llvm::BumpPtrAllocatorImpl", %"class.llvm::UniqueStringSaver", %"class.llvm::SpecificBumpPtrAllocator", %"class.llvm::DenseMap.300", %"class.llvm::DenseSet.303", %"class.llvm::DenseSet.308", %"class.llvm::StringMap.313", i32, [4 x i8], %"class.llvm::DenseSet.314", %"class.llvm::DenseMap.319", %"class.llvm::DenseMap.322", ptr, %"class.llvm::DenseMap.325", %"class.llvm::DenseMap.328", %"class.llvm::DenseMap.331", %"class.llvm::StringMap.334", %"class.llvm::DenseMap.335", %"class.llvm::DenseMap.338", %"class.llvm::DenseMap.341", %"class.llvm::DenseMap.344", %"class.llvm::DenseMap.347", %"class.llvm::DenseMap.350", %"class.llvm::StringMap.334", %"class.llvm::StringMap.353", %"class.llvm::DenseMap.354", i8, ptr, %"class.llvm::SmallDenseMap", %"class.std::__cxx11::basic_string", %"class.std::__cxx11::basic_string" }
%"class.llvm::SmallPtrSet" = type { %"class.llvm::SmallPtrSetImpl.base", [4 x ptr] }
%"class.llvm::SmallPtrSetImpl.base" = type { %"class.llvm::SmallPtrSetImplBase.base" }
%"class.llvm::SmallPtrSetImplBase.base" = type <{ ptr, ptr, i32, i32, i32 }>
%"class.llvm::DenseMap" = type <{ ptr, i32, i32, i32, [4 x i8] }>
%"class.std::unique_ptr" = type { %"struct.std::__uniq_ptr_data" }
%"struct.std::__uniq_ptr_data" = type { %"class.std::__uniq_ptr_impl" }
%"class.std::__uniq_ptr_impl" = type { %"class.std::tuple" }
%"class.std::tuple" = type { %"struct.std::_Tuple_impl" }
%"struct.std::_Tuple_impl" = type { %"struct.std::_Head_base.1" }
%"struct.std::_Head_base.1" = type { ptr }
%"class.std::unique_ptr.2" = type { %"struct.std::__uniq_ptr_data.3" }
%"struct.std::__uniq_ptr_data.3" = type { %"class.std::__uniq_ptr_impl.4" }
%"class.std::__uniq_ptr_impl.4" = type { %"class.std::tuple.5" }
%"class.std::tuple.5" = type { %"struct.std::_Tuple_impl.6" }
%"struct.std::_Tuple_impl.6" = type { %"struct.std::_Head_base.9" }
%"struct.std::_Head_base.9" = type { ptr }
%"class.std::optional" = type { %"struct.std::_Optional_base" }
%"struct.std::_Optional_base" = type { %"struct.std::_Optional_payload" }
%"struct.std::_Optional_payload" = type { %"struct.std::_Optional_payload_base.base", [7 x i8] }
%"struct.std::_Optional_payload_base.base" = type <{ %"union.std::_Optional_payload_base<unsigned long>::_Storage", i8 }>
%"union.std::_Optional_payload_base<unsigned long>::_Storage" = type { i64 }
%"class.std::optional.10" = type { %"struct.std::_Optional_base.11" }
%"struct.std::_Optional_base.11" = type { %"struct.std::_Optional_payload.13" }
%"struct.std::_Optional_payload.13" = type { %"struct.std::_Optional_payload_base.base.15", [3 x i8] }
%"struct.std::_Optional_payload_base.base.15" = type <{ %"union.std::_Optional_payload_base<unsigned int>::_Storage", i8 }>
%"union.std::_Optional_payload_base<unsigned int>::_Storage" = type { i32 }
%"class.std::unique_ptr.18" = type { %"struct.std::__uniq_ptr_data.19" }
%"struct.std::__uniq_ptr_data.19" = type { %"class.std::__uniq_ptr_impl.20" }
%"class.std::__uniq_ptr_impl.20" = type { %"class.std::tuple.21" }
%"class.std::tuple.21" = type { %"struct.std::_Tuple_impl.22" }
%"struct.std::_Tuple_impl.22" = type { %"struct.std::_Head_base.25" }
%"struct.std::_Head_base.25" = type { ptr }
%"class.llvm::DenseMap.26" = type <{ ptr, i32, i32, i32, [4 x i8] }>
%"class.llvm::DenseMap.29" = type <{ ptr, i32, i32, i32, [4 x i8] }>
%"class.llvm::DenseMap.32" = type <{ ptr, i32, i32, i32, [4 x i8] }>
%"class.llvm::DenseMap.35" = type <{ ptr, i32, i32, i32, [4 x i8] }>
%"class.llvm::DenseMap.38" = type <{ ptr, i32, i32, i32, [4 x i8] }>
%"class.llvm::DenseMap.41" = type <{ ptr, i32, i32, i32, [4 x i8] }>
%"class.llvm::FoldingSet" = type { %"class.llvm::FoldingSetImpl" }
%"class.llvm::FoldingSetImpl" = type { %"class.llvm::FoldingSetBase" }
%"class.llvm::FoldingSetBase" = type { ptr, i32, i32 }
%"class.llvm::FoldingSet.44" = type { %"class.llvm::FoldingSetImpl.45" }
%"class.llvm::FoldingSetImpl.45" = type { %"class.llvm::FoldingSetBase" }
%"class.llvm::FoldingSet.46" = type { %"class.llvm::FoldingSetImpl.47" }
%"class.llvm::FoldingSetImpl.47" = type { %"class.llvm::FoldingSetBase" }
%"class.llvm::StringMap" = type { %"class.llvm::StringMapImpl", %"class.llvm::detail::AllocatorHolder" }
%"class.llvm::StringMapImpl" = type { ptr, i32, i32, i32, i32 }
%"class.llvm::detail::AllocatorHolder" = type { %"class.llvm::BumpPtrAllocatorImpl" }
%"class.llvm::DenseMap.55" = type <{ ptr, i32, i32, i32, [4 x i8] }>
%"class.llvm::DenseMap.58" = type <{ ptr, i32, i32, i32, [4 x i8] }>
%"class.llvm::DenseSet" = type { %"class.llvm::detail::DenseSetImpl" }
%"class.llvm::detail::DenseSetImpl" = type { %"class.llvm::DenseMap.61" }
%"class.llvm::DenseMap.61" = type <{ ptr, i32, i32, i32, [4 x i8] }>
%"class.llvm::DenseSet.64" = type { %"class.llvm::detail::DenseSetImpl.65" }
%"class.llvm::detail::DenseSetImpl.65" = type { %"class.llvm::DenseMap.66" }
%"class.llvm::DenseMap.66" = type <{ ptr, i32, i32, i32, [4 x i8] }>
%"class.llvm::DenseSet.69" = type { %"class.llvm::detail::DenseSetImpl.70" }
%"class.llvm::detail::DenseSetImpl.70" = type { %"class.llvm::DenseMap.71" }
%"class.llvm::DenseMap.71" = type <{ ptr, i32, i32, i32, [4 x i8] }>
%"class.llvm::DenseSet.74" = type { %"class.llvm::detail::DenseSetImpl.75" }
%"class.llvm::detail::DenseSetImpl.75" = type { %"class.llvm::DenseMap.76" }
%"class.llvm::DenseMap.76" = type <{ ptr, i32, i32, i32, [4 x i8] }>
%"class.llvm::DenseSet.79" = type { %"class.llvm::detail::DenseSetImpl.80" }
%"class.llvm::detail::DenseSetImpl.80" = type { %"class.llvm::DenseMap.81" }
%"class.llvm::DenseMap.81" = type <{ ptr, i32, i32, i32, [4 x i8] }>
%"class.llvm::DenseSet.84" = type { %"class.llvm::detail::DenseSetImpl.85" }
%"class.llvm::detail::DenseSetImpl.85" = type { %"class.llvm::DenseMap.86" }
%"class.llvm::DenseMap.86" = type <{ ptr, i32, i32, i32, [4 x i8] }>
%"class.llvm::DenseSet.89" = type { %"class.llvm::detail::DenseSetImpl.90" }
%"class.llvm::detail::DenseSetImpl.90" = type { %"class.llvm::DenseMap.91" }
%"class.llvm::DenseMap.91" = type <{ ptr, i32, i32, i32, [4 x i8] }>
%"class.llvm::DenseSet.94" = type { %"class.llvm::detail::DenseSetImpl.95" }
%"class.llvm::detail::DenseSetImpl.95" = type { %"class.llvm::DenseMap.96" }
%"class.llvm::DenseMap.96" = type <{ ptr, i32, i32, i32, [4 x i8] }>
%"class.llvm::DenseSet.99" = type { %"class.llvm::detail::DenseSetImpl.100" }
%"class.llvm::detail::DenseSetImpl.100" = type { %"class.llvm::DenseMap.101" }
%"class.llvm::DenseMap.101" = type <{ ptr, i32, i32, i32, [4 x i8] }>
%"class.llvm::DenseSet.104" = type { %"class.llvm::detail::DenseSetImpl.105" }
%"class.llvm::detail::DenseSetImpl.105" = type { %"class.llvm::DenseMap.106" }
%"class.llvm::DenseMap.106" = type <{ ptr, i32, i32, i32, [4 x i8] }>
%"class.llvm::DenseSet.109" = type { %"class.llvm::detail::DenseSetImpl.110" }
%"class.llvm::detail::DenseSetImpl.110" = type { %"class.llvm::DenseMap.111" }
%"class.llvm::DenseMap.111" = type <{ ptr, i32, i32, i32, [4 x i8] }>
%"class.llvm::DenseSet.114" = type { %"class.llvm::detail::DenseSetImpl.115" }
%"class.llvm::detail::DenseSetImpl.115" = type { %"class.llvm::DenseMap.116" }
%"class.llvm::DenseMap.116" = type <{ ptr, i32, i32, i32, [4 x i8] }>
%"class.llvm::DenseSet.119" = type { %"class.llvm::detail::DenseSetImpl.120" }
%"class.llvm::detail::DenseSetImpl.120" = type { %"class.llvm::DenseMap.121" }
%"class.llvm::DenseMap.121" = type <{ ptr, i32, i32, i32, [4 x i8] }>
%"class.llvm::DenseSet.124" = type { %"class.llvm::detail::DenseSetImpl.125" }
%"class.llvm::detail::DenseSetImpl.125" = type { %"class.llvm::DenseMap.126" }
%"class.llvm::DenseMap.126" = type <{ ptr, i32, i32, i32, [4 x i8] }>
%"class.llvm::DenseSet.129" = type { %"class.llvm::detail::DenseSetImpl.130" }
%"class.llvm::detail::DenseSetImpl.130" = type { %"class.llvm::DenseMap.131" }
%"class.llvm::DenseMap.131" = type <{ ptr, i32, i32, i32, [4 x i8] }>
%"class.llvm::DenseSet.134" = type { %"class.llvm::detail::DenseSetImpl.135" }
%"class.llvm::detail::DenseSetImpl.135" = type { %"class.llvm::DenseMap.136" }
%"class.llvm::DenseMap.136" = type <{ ptr, i32, i32, i32, [4 x i8] }>
%"class.llvm::DenseSet.139" = type { %"class.llvm::detail::DenseSetImpl.140" }
%"class.llvm::detail::DenseSetImpl.140" = type { %"class.llvm::DenseMap.141" }
%"class.llvm::DenseMap.141" = type <{ ptr, i32, i32, i32, [4 x i8] }>
%"class.llvm::DenseSet.144" = type { %"class.llvm::detail::DenseSetImpl.145" }
%"class.llvm::detail::DenseSetImpl.145" = type { %"class.llvm::DenseMap.146" }
%"class.llvm::DenseMap.146" = type <{ ptr, i32, i32, i32, [4 x i8] }>
%"class.llvm::DenseSet.149" = type { %"class.llvm::detail::DenseSetImpl.150" }
%"class.llvm::detail::DenseSetImpl.150" = type { %"class.llvm::DenseMap.151" }
%"class.llvm::DenseMap.151" = type <{ ptr, i32, i32, i32, [4 x i8] }>
%"class.llvm::DenseSet.154" = type { %"class.llvm::detail::DenseSetImpl.155" }
%"class.llvm::detail::DenseSetImpl.155" = type { %"class.llvm::DenseMap.156" }
%"class.llvm::DenseMap.156" = type <{ ptr, i32, i32, i32, [4 x i8] }>
%"class.llvm::DenseSet.159" = type { %"class.llvm::detail::DenseSetImpl.160" }
%"class.llvm::detail::DenseSetImpl.160" = type { %"class.llvm::DenseMap.161" }
%"class.llvm::DenseMap.161" = type <{ ptr, i32, i32, i32, [4 x i8] }>
%"class.llvm::DenseSet.164" = type { %"class.llvm::detail::DenseSetImpl.165" }
%"class.llvm::detail::DenseSetImpl.165" = type { %"class.llvm::DenseMap.166" }
%"class.llvm::DenseMap.166" = type <{ ptr, i32, i32, i32, [4 x i8] }>
%"class.llvm::DenseSet.169" = type { %"class.llvm::detail::DenseSetImpl.170" }
%"class.llvm::detail::DenseSetImpl.170" = type { %"class.llvm::DenseMap.171" }
%"class.llvm::DenseMap.171" = type <{ ptr, i32, i32, i32, [4 x i8] }>
%"class.llvm::DenseSet.174" = type { %"class.llvm::detail::DenseSetImpl.175" }
%"class.llvm::detail::DenseSetImpl.175" = type { %"class.llvm::DenseMap.176" }
%"class.llvm::DenseMap.176" = type <{ ptr, i32, i32, i32, [4 x i8] }>
%"class.llvm::DenseSet.179" = type { %"class.llvm::detail::DenseSetImpl.180" }
%"class.llvm::detail::DenseSetImpl.180" = type { %"class.llvm::DenseMap.181" }
%"class.llvm::DenseMap.181" = type <{ ptr, i32, i32, i32, [4 x i8] }>
%"class.llvm::DenseSet.184" = type { %"class.llvm::detail::DenseSetImpl.185" }
%"class.llvm::detail::DenseSetImpl.185" = type { %"class.llvm::DenseMap.186" }
%"class.llvm::DenseMap.186" = type <{ ptr, i32, i32, i32, [4 x i8] }>
%"class.llvm::DenseSet.189" = type { %"class.llvm::detail::DenseSetImpl.190" }
%"class.llvm::detail::DenseSetImpl.190" = type { %"class.llvm::DenseMap.191" }
%"class.llvm::DenseMap.191" = type <{ ptr, i32, i32, i32, [4 x i8] }>
%"class.llvm::DenseSet.194" = type { %"class.llvm::detail::DenseSetImpl.195" }
%"class.llvm::detail::DenseSetImpl.195" = type { %"class.llvm::DenseMap.196" }
%"class.llvm::DenseMap.196" = type <{ ptr, i32, i32, i32, [4 x i8] }>
%"class.llvm::DenseSet.199" = type { %"class.llvm::detail::DenseSetImpl.200" }
%"class.llvm::detail::DenseSetImpl.200" = type { %"class.llvm::DenseMap.201" }
%"class.llvm::DenseMap.201" = type <{ ptr, i32, i32, i32, [4 x i8] }>
%"class.llvm::DenseSet.204" = type { %"class.llvm::detail::DenseSetImpl.205" }
%"class.llvm::detail::DenseSetImpl.205" = type { %"class.llvm::DenseMap.206" }
%"class.llvm::DenseMap.206" = type <{ ptr, i32, i32, i32, [4 x i8] }>
%"class.std::optional.209" = type { %"struct.std::_Optional_base.210" }
%"struct.std::_Optional_base.210" = type { %"struct.std::_Optional_payload.212" }
%"struct.std::_Optional_payload.212" = type { %"struct.std::_Optional_payload.base.219", [7 x i8] }
%"struct.std::_Optional_payload.base.219" = type { %"struct.std::_Optional_payload_base.base.218" }
%"struct.std::_Optional_payload_base.base.218" = type { %"union.std::_Optional_payload_base<llvm::DenseMap<const llvm::MDString *, llvm::DICompositeType *>>::_Storage", i8 }
%"union.std::_Optional_payload_base<llvm::DenseMap<const llvm::MDString *, llvm::DICompositeType *>>::_Storage" = type { %"class.llvm::DenseMap.215" }
%"class.llvm::DenseMap.215" = type <{ ptr, i32, i32, i32, [4 x i8] }>
%"class.std::vector" = type { %"struct.std::_Vector_base" }
%"struct.std::_Vector_base" = type { %"struct.std::_Vector_base<llvm::MDNode *, std::allocator<llvm::MDNode *>>::_Vector_impl" }
%"struct.std::_Vector_base<llvm::MDNode *, std::allocator<llvm::MDNode *>>::_Vector_impl" = type { %"struct.std::_Vector_base<llvm::MDNode *, std::allocator<llvm::MDNode *>>::_Vector_impl_data" }
%"struct.std::_Vector_base<llvm::MDNode *, std::allocator<llvm::MDNode *>>::_Vector_impl_data" = type { ptr, ptr, ptr }
%"class.std::vector.222" = type { %"struct.std::_Vector_base.223" }
%"struct.std::_Vector_base.223" = type { %"struct.std::_Vector_base<llvm::ConstantRangeListAttributeImpl *, std::allocator<llvm::ConstantRangeListAttributeImpl *>>::_Vector_impl" }
%"struct.std::_Vector_base<llvm::ConstantRangeListAttributeImpl *, std::allocator<llvm::ConstantRangeListAttributeImpl *>>::_Vector_impl" = type { %"struct.std::_Vector_base<llvm::ConstantRangeListAttributeImpl *, std::allocator<llvm::ConstantRangeListAttributeImpl *>>::_Vector_impl_data" }
%"struct.std::_Vector_base<llvm::ConstantRangeListAttributeImpl *, std::allocator<llvm::ConstantRangeListAttributeImpl *>>::_Vector_impl_data" = type { ptr, ptr, ptr }
%"class.llvm::DenseMap.227" = type <{ ptr, i32, i32, i32, [4 x i8] }>
%"class.llvm::ConstantUniqueMap" = type { %"class.llvm::DenseSet.230" }
%"class.llvm::DenseSet.230" = type { %"class.llvm::detail::DenseSetImpl.231" }
%"class.llvm::detail::DenseSetImpl.231" = type { %"class.llvm::DenseMap.232" }
%"class.llvm::DenseMap.232" = type <{ ptr, i32, i32, i32, [4 x i8] }>
%"class.llvm::ConstantUniqueMap.235" = type { %"class.llvm::DenseSet.236" }
%"class.llvm::DenseSet.236" = type { %"class.llvm::detail::DenseSetImpl.237" }
%"class.llvm::detail::DenseSetImpl.237" = type { %"class.llvm::DenseMap.238" }
%"class.llvm::DenseMap.238" = type <{ ptr, i32, i32, i32, [4 x i8] }>
%"class.llvm::ConstantUniqueMap.241" = type { %"class.llvm::DenseSet.242" }
%"class.llvm::DenseSet.242" = type { %"class.llvm::detail::DenseSetImpl.243" }
%"class.llvm::detail::DenseSetImpl.243" = type { %"class.llvm::DenseMap.244" }
%"class.llvm::DenseMap.244" = type <{ ptr, i32, i32, i32, [4 x i8] }>
%"class.llvm::DenseMap.247" = type <{ ptr, i32, i32, i32, [4 x i8] }>
%"class.llvm::DenseMap.250" = type <{ ptr, i32, i32, i32, [4 x i8] }>
%"class.llvm::DenseMap.253" = type <{ ptr, i32, i32, i32, [4 x i8] }>
%"class.llvm::DenseMap.256" = type <{ ptr, i32, i32, i32, [4 x i8] }>
%"class.llvm::StringMap.259" = type { %"class.llvm::StringMapImpl" }
%"class.llvm::DenseMap.260" = type <{ ptr, i32, i32, i32, [4 x i8] }>
%"class.llvm::DenseMap.263" = type <{ ptr, i32, i32, i32, [4 x i8] }>
%"class.llvm::DenseMap.266" = type <{ ptr, i32, i32, i32, [4 x i8] }>
%"class.llvm::ConstantUniqueMap.269" = type { %"class.llvm::DenseSet.270" }
%"class.llvm::DenseSet.270" = type { %"class.llvm::detail::DenseSetImpl.271" }
%"class.llvm::detail::DenseSetImpl.271" = type { %"class.llvm::DenseMap.272" }
%"class.llvm::DenseMap.272" = type <{ ptr, i32, i32, i32, [4 x i8] }>
%"class.llvm::ConstantUniqueMap.275" = type { %"class.llvm::DenseSet.276" }
%"class.llvm::DenseSet.276" = type { %"class.llvm::detail::DenseSetImpl.277" }
%"class.llvm::detail::DenseSetImpl.277" = type { %"class.llvm::DenseMap.278" }
%"class.llvm::DenseMap.278" = type <{ ptr, i32, i32, i32, [4 x i8] }>
%"class.llvm::ConstantUniqueMap.281" = type { %"class.llvm::DenseSet.282" }
%"class.llvm::DenseSet.282" = type { %"class.llvm::detail::DenseSetImpl.283" }
%"class.llvm::detail::DenseSetImpl.283" = type { %"class.llvm::DenseMap.284" }
%"class.llvm::DenseMap.284" = type <{ ptr, i32, i32, i32, [4 x i8] }>
%"class.llvm::Type" = type { ptr, i32, i32, ptr }
%"class.llvm::IntegerType" = type { %"class.llvm::Type" }
%"class.std::unique_ptr.287" = type { %"struct.std::__uniq_ptr_data.288" }
%"struct.std::__uniq_ptr_data.288" = type { %"class.std::__uniq_ptr_impl.289" }
%"class.std::__uniq_ptr_impl.289" = type { %"class.std::tuple.290" }
%"class.std::tuple.290" = type { %"struct.std::_Tuple_impl.291" }
%"struct.std::_Tuple_impl.291" = type { %"struct.std::_Head_base.294" }
%"struct.std::_Head_base.294" = type { ptr }
%"class.llvm::BumpPtrAllocatorImpl" = type { ptr, ptr, %"class.llvm::SmallVector", %"class.llvm::SmallVector.50", i64, i64 }
%"class.llvm::SmallVector" = type { %"class.llvm::SmallVectorImpl", %"struct.llvm::SmallVectorStorage" }
%"class.llvm::SmallVectorImpl" = type { %"class.llvm::SmallVectorTemplateBase" }
%"class.llvm::SmallVectorTemplateBase" = type { %"class.llvm::SmallVectorTemplateCommon" }
%"class.llvm::SmallVectorTemplateCommon" = type { %"class.llvm::SmallVectorBase" }
%"class.llvm::SmallVectorBase" = type { ptr, i32, i32 }
%"struct.llvm::SmallVectorStorage" = type { [32 x i8] }
%"class.llvm::SmallVector.50" = type { %"class.llvm::SmallVectorImpl.51" }
%"class.llvm::SmallVectorImpl.51" = type { %"class.llvm::SmallVectorTemplateBase.52" }
%"class.llvm::SmallVectorTemplateBase.52" = type { %"class.llvm::SmallVectorTemplateCommon.53" }
%"class.llvm::SmallVectorTemplateCommon.53" = type { %"class.llvm::SmallVectorBase" }
%"class.llvm::UniqueStringSaver" = type { %"class.llvm::StringSaver", %"class.llvm::DenseSet.295" }
%"class.llvm::StringSaver" = type { ptr }
%"class.llvm::DenseSet.295" = type { %"class.llvm::detail::DenseSetImpl.296" }
%"class.llvm::detail::DenseSetImpl.296" = type { %"class.llvm::DenseMap.297" }
%"class.llvm::DenseMap.297" = type <{ ptr, i32, i32, i32, [4 x i8] }>
%"class.llvm::SpecificBumpPtrAllocator" = type { %"class.llvm::BumpPtrAllocatorImpl" }
%"class.llvm::DenseMap.300" = type <{ ptr, i32, i32, i32, [4 x i8] }>
%"class.llvm::DenseSet.303" = type { %"class.llvm::detail::DenseSetImpl.304" }
%"class.llvm::detail::DenseSetImpl.304" = type { %"class.llvm::DenseMap.305" }
%"class.llvm::DenseMap.305" = type <{ ptr, i32, i32, i32, [4 x i8] }>
%"class.llvm::DenseSet.308" = type { %"class.llvm::detail::DenseSetImpl.309" }
%"class.llvm::detail::DenseSetImpl.309" = type { %"class.llvm::DenseMap.310" }
%"class.llvm::DenseMap.310" = type <{ ptr, i32, i32, i32, [4 x i8] }>
%"class.llvm::StringMap.313" = type { %"class.llvm::StringMapImpl" }
%"class.llvm::DenseSet.314" = type { %"class.llvm::detail::DenseSetImpl.315" }
%"class.llvm::detail::DenseSetImpl.315" = type { %"class.llvm::DenseMap.316" }
%"class.llvm::DenseMap.316" = type <{ ptr, i32, i32, i32, [4 x i8] }>
%"class.llvm::DenseMap.319" = type <{ ptr, i32, i32, i32, [4 x i8] }>
%"class.llvm::DenseMap.322" = type <{ ptr, i32, i32, i32, [4 x i8] }>
%"class.llvm::DenseMap.325" = type <{ ptr, i32, i32, i32, [4 x i8] }>
%"class.llvm::DenseMap.328" = type <{ ptr, i32, i32, i32, [4 x i8] }>
%"class.llvm::DenseMap.331" = type <{ ptr, i32, i32, i32, [4 x i8] }>
%"class.llvm::DenseMap.335" = type <{ ptr, i32, i32, i32, [4 x i8] }>
%"class.llvm::DenseMap.338" = type <{ ptr, i32, i32, i32, [4 x i8] }>
%"class.llvm::DenseMap.341" = type <{ ptr, i32, i32, i32, [4 x i8] }>
%"class.llvm::DenseMap.344" = type <{ ptr, i32, i32, i32, [4 x i8] }>
%"class.llvm::DenseMap.347" = type <{ ptr, i32, i32, i32, [4 x i8] }>
%"class.llvm::DenseMap.350" = type <{ ptr, i32, i32, i32, [4 x i8] }>
%"class.llvm::StringMap.334" = type { %"class.llvm::StringMapImpl" }
%"class.llvm::StringMap.353" = type { %"class.llvm::StringMapImpl" }
%"class.llvm::DenseMap.354" = type <{ ptr, i32, i32, i32, [4 x i8] }>
%"class.llvm::SmallDenseMap" = type { i32, i32, %"struct.llvm::AlignedCharArrayUnion" }
%"struct.llvm::AlignedCharArrayUnion" = type { [64 x i8] }
%"class.std::__cxx11::basic_string" = type { %"struct.std::__cxx11::basic_string<char>::_Alloc_hider", i64, %union.anon }
%"struct.std::__cxx11::basic_string<char>::_Alloc_hider" = type { ptr }
%union.anon = type { i64, [8 x i8] }
%"struct.std::_Optional_payload_base.14" = type <{ %"union.std::_Optional_payload_base<unsigned int>::_Storage", i8, [3 x i8] }>

; Function Attrs: mustprogress nounwind uwtable
define linkonce_odr hidden noundef nonnull align 4 dereferenceable(4) ptr @_ZNKSt22_Optional_payload_baseIjE6_M_getEv(ptr noundef nonnull align 4 dereferenceable(5) %0) #0 comdat align 2 {
  %2 = alloca ptr, align 8
  store ptr %0, ptr %2, align 8
  %3 = load ptr, ptr %2, align 8
  %4 = getelementptr inbounds nuw %"struct.std::_Optional_payload_base.14", ptr %3, i32 0, i32 0
  ret ptr %4
}

; Function Attrs: mustprogress nounwind uwtable
define linkonce_odr hidden noundef nonnull align 4 dereferenceable(4) ptr @_ZNKSt19_Optional_base_implIjSt14_Optional_baseIjLb1ELb1EEE6_M_getEv(ptr noundef nonnull align 1 dereferenceable(1) %0) #0 comdat align 2 {
  %2 = alloca ptr, align 8
  store ptr %0, ptr %2, align 8
  %3 = load ptr, ptr %2, align 8
  br label %4

4:                                                ; preds = %1
  br label %5

5:                                                ; preds = %4
  %6 = getelementptr inbounds nuw %"struct.std::_Optional_base.11", ptr %3, i32 0, i32 0
  %7 = call noundef nonnull align 4 dereferenceable(4) ptr @_ZNKSt22_Optional_payload_baseIjE6_M_getEv(ptr noundef nonnull align 4 dereferenceable(5) %6) #10
  ret ptr %7
}

; Function Attrs: mustprogress nounwind uwtable
define linkonce_odr hidden noundef zeroext i1 @_ZNKSt19_Optional_base_implIjSt14_Optional_baseIjLb1ELb1EEE13_M_is_engagedEv(ptr noundef nonnull align 1 dereferenceable(1) %0) #0 comdat align 2 {
  %2 = alloca ptr, align 8
  store ptr %0, ptr %2, align 8
  %3 = load ptr, ptr %2, align 8
  %4 = getelementptr inbounds nuw %"struct.std::_Optional_base.11", ptr %3, i32 0, i32 0
  %5 = getelementptr inbounds nuw %"struct.std::_Optional_payload_base.14", ptr %4, i32 0, i32 1
  %6 = load i8, ptr %5, align 4
  %7 = trunc i8 %6 to i1
  ret i1 %7
}

; Function Attrs: mustprogress nounwind uwtable
define linkonce_odr hidden noundef i32 @_ZNKRSt8optionalIjE8value_orIiEEjOT_(ptr noundef nonnull align 4 dereferenceable(8) %0, ptr noundef nonnull align 4 dereferenceable(4) %1) #0 comdat align 2 {
  %3 = alloca i32, align 4
  %4 = alloca ptr, align 8
  %5 = alloca ptr, align 8
  store ptr %0, ptr %4, align 8
  store ptr %1, ptr %5, align 8
  %6 = load ptr, ptr %4, align 8
  %7 = call noundef zeroext i1 @_ZNKSt19_Optional_base_implIjSt14_Optional_baseIjLb1ELb1EEE13_M_is_engagedEv(ptr noundef nonnull align 1 dereferenceable(1) %6) #10
  br i1 %7, label %8, label %11

8:                                                ; preds = %2
  %9 = call noundef nonnull align 4 dereferenceable(4) ptr @_ZNKSt19_Optional_base_implIjSt14_Optional_baseIjLb1ELb1EEE6_M_getEv(ptr noundef nonnull align 1 dereferenceable(1) %6) #10
  %10 = load i32, ptr %9, align 4
  store i32 %10, ptr %3, align 4
  br label %14

11:                                               ; preds = %2
  %12 = load ptr, ptr %5, align 8
  %13 = load i32, ptr %12, align 4
  store i32 %13, ptr %3, align 4
  br label %14

14:                                               ; preds = %11, %8
  %15 = load i32, ptr %3, align 4
  ret i32 %15
}

; Function Attrs: mustprogress nounwind uwtable
define dso_local noundef i32 @_ZNK4llvm11LLVMContext32getDiagnosticsMisExpectToleranceEv(ptr noundef nonnull align 8 dereferenceable(8) %0) #0 align 2 {
  %2 = alloca ptr, align 8
  %3 = alloca i32, align 4
  store ptr %0, ptr %2, align 8
  %4 = load ptr, ptr %2, align 8
  %5 = getelementptr inbounds nuw %"class.llvm::LLVMContext", ptr %4, i32 0, i32 0
  %6 = load ptr, ptr %5, align 8
  %7 = getelementptr inbounds nuw %"class.llvm::LLVMContextImpl", ptr %6, i32 0, i32 8
  store i32 0, ptr %3, align 4
  %8 = call noundef i32 @_ZNKRSt8optionalIjE8value_orIiEEjOT_(ptr noundef nonnull align 4 dereferenceable(8) %7, ptr noundef nonnull align 4 dereferenceable(4) %3)
  ret i32 %8
}