; Function Attrs: mustprogress nofree norecurse nosync nounwind willreturn memory(read, inaccessiblemem: none) uwtable
define dso_local noundef i32 @_ZNK4llvm11LLVMContext32getDiagnosticsMisExpectToleranceEv(ptr noundef nonnull readonly align 8 captures(none) dereferenceable(8) %0) local_unnamed_addr #8 align 2 {
  %2 = load ptr, ptr %0, align 8
  %3 = getelementptr inbounds nuw i8, ptr %2, i64 128
  %4 = getelementptr inbounds nuw i8, ptr %2, i64 132
  %5 = load i8, ptr %4, align 4
  %6 = trunc i8 %5 to i1
  %.val.i = load i32, ptr %3, align 4
  %.0.i = select i1 %6, i32 %.val.i, i32 0
  ret i32 %.0.i
}